

Alexander Patalenski           Original (Paul Lutus)            Alternative (Alexander)
-------------------------      -------------------------        -------------------------
2800:   A900   LDA #00         0803:   A901   LDA #01           6650:   A901   LDA #01
2802:   85D8   STA D8          0805:   8509   STA 09            6652:   8542   STA 42
2804:   85D6   STA D6          0807:   851D   STA 1D            6654:   8543   STA 43
2806:   85D7   STA D7          0809:   48     PHA               6656:   8544   STA 44
2808:   A000   LDY #00         080A:   48     PHA               6658:   8545   STA 45
280A:   B11E   LDA (1E),Y      080B:   48     PHA               665A:   A000   LDY #00
280C:   D001   BNE 280F        080C:   D015   BNE 0823          665C:   B11E   LDA (1E),Y
280E:   60     RTS             080E:   C8     INY               665E:   D001   BNE 6661
280F:   85D2   STA D2          080F:   B11E   LDA (1E),Y        6660:   60     RTS
2811:   AD00C0 LDA C000        0811:   8509   STA 09            6661:   C901   CMP #01
2814:   30F8   BMI 280E        0813:   C8     INY               6663:   D00D   BNE 6672
2816:   A200   LDX #00         0814:   B11E   LDA (1E),Y        6665:   C8     INY
2818:   20B328 JSR 28B3        0816:   851D   STA 1D            6666:   B11E   LDA (1E),Y
281B:   8D4C28 STA 284C        0818:   A51E   LDA 1E            6668:   8542   STA 42
281E:   8D5C28 STA 285C        081A:   18     CLC               666A:   C8     INY
2821:   8E4F28 STX 284F        081B:   6903   ADC #03           666B:   B11E   LDA (1E),Y
2824:   8E5F28 STX 285F        081D:   851E   STA 1E            666D:   8543   STA 43
2827:   A201   LDX #01         081F:   9002   BCC 0823          666F:   4CFF66 JMP 66FF
2829:   20B328 JSR 28B3        0821:   E61F   INC 1F            6672:   8540   STA 40
282C:   8D7628 STA 2876        0823:   A000   LDY #00           6674:   C8     INY
282F:   8D8628 STA 2886        0825:   B11E   LDA (1E),Y        6675:   B11E   LDA (1E),Y
2832:   8E7928 STX 2879        0827:   C901   CMP #01           6677:   853C   STA 3C
2835:   8E8928 STX 2889        0829:   F0E3   BEQ 080E          6679:   A642   LDX 42
2838:   A900   LDA #00         082B:   B00D   BCS 083A          667B:   4A     LSR
283A:   A28A   LDX #8A         082D:   68     PLA               667C:   CA     DEX
283C:   A040   LDY #40         082E:   68     PLA               667D:   D0FC   BNE 667B
283E:   85D3   STA D3          082F:   68     PLA               667F:   853E   STA 3E
2840:   85D8   STA D8          0830:   A249   LDX #49           6681:   C8     INY
2842:   88     DEY             0832:   C8     INY               6682:   B11E   LDA (1E),Y
2843:   D00E   BNE 2853        0833:   B11E   LDA (1E),Y        6684:   853D   STA 3D
2845:   A4D4   LDY D4          0835:   D002   BNE 0839          6686:   A643   LDX 43
2847:   24D8   BIT D8          0837:   A2C9   LDX #C9           6688:   4A     LSR
2849:   3019   BMI 2864        0839:   60     RTS               6689:   CA     DEX
284B:   2C30C0 BIT C030        083A:   8508   STA 08            668A:   D0FC   BNE 6688
284E:   49A0   EOR #A0         083C:   203008 JSR 0830          668C:   853F   STA 3F
2850:   4C6828 JMP 2868        083F:   8E8608 STX 0886          668E:   A63C   LDX 3C
2853:   C4D6   CPY D6          0842:   8506   STA 06            6690:   A43D   LDY 3D
2855:   D00C   BNE 2863        0844:   A609   LDX 09            6692:   A900   LDA #00
2857:   24D8   BIT D8          0846:   4A     LSR               6694:   2444   BIT 44
2859:   100A   BPL 2865        0847:   CA     DEX               6696:   700B   BVS 66A3
285B:   2C30C0 BIT C030        0848:   D0FC   BNE 0846          6698:   3029   BMI 66C3
285E:   49A0   EOR #A0         084A:   8D7F08 STA 087F          669A:   2445   BIT 45
2860:   4C6928 JMP 2869        084D:   203008 JSR 0830          669C:   300B   BMI 66A9
2863:   EA     NOP             0850:   8EBE08 STX 08BE          669E:   EA     NOP
2864:   EA     NOP             0853:   8507   STA 07            669F:   100B   BPL 66AC
2865:   EA     NOP             0855:   A61D   LDX 1D            66A1:   3009   BMI 66AC
2866:   EA     NOP             0857:   4A     LSR               66A3:   101F   BPL 66C4
2867:   EA     NOP             0858:   CA     DEX               66A5:   2445   BIT 45
2868:   EA     NOP             0859:   D0FC   BNE 0857          66A7:   30F8   BMI 66A1
2869:   EA     NOP             085B:   8DB708 STA 08B7          66A9:   2C30C0 BIT C030
286A:   85D8   STA D8          085E:   68     PLA               66AC:   8545   STA 45
286C:   CA     DEX             085F:   A8     TAY               66AE:   CA     DEX
286D:   D00E   BNE 287D        0860:   68     PLA               66AF:   F008   BEQ 66B9
286F:   A6D5   LDX D5          0861:   AA     TAX               66B1:   E43E   CPX 3E
2871:   24D8   BIT D8          0862:   68     PLA               66B3:   F008   BEQ 66BD
2873:   3019   BMI 288E        0863:   D003   BNE 0868          66B5:   EA     NOP
2875:   2C30C0 BIT C030        0865:   2C30C0 BIT C030          66B6:   4CC066 JMP 66C0
2878:   49A0   EOR #A0         0868:   C900   CMP #00           66B9:   A63C   LDX 3C
287A:   4C9228 JMP 2892        086A:   3003   BMI 086F          66BB:   F0F9   BEQ 66B6
287D:   E4D7   CPX D7          086C:   EA     NOP               66BD:   EA     NOP
287F:   D00C   BNE 288D        086D:   1003   BPL 0872          66BE:   4980   EOR #80
2881:   24D8   BIT D8          086F:   2C30C0 BIT C030          66C0:   4C0E67 JMP 670E
2883:   100A   BPL 288F        0872:   854E   STA 4E            66C3:   24EA   BIT EA
2885:   2C30C0 BIT C030        0874:   2C00C0 BIT C000          66C5:   2C30C0 BIT C030
2888:   49A0   EOR #A0         0877:   30C0   BMI 0839          66C8:   CA     DEX
288A:   4C9328 JMP 2893        0879:   88     DEY               66C9:   F008   BEQ 66D3
288D:   EA     NOP             087A:   D002   BNE 087E          66CB:   E43E   CPX 3E
288E:   EA     NOP             087C:   F006   BEQ 0884          66CD:   F008   BEQ 66D7
288F:   EA     NOP             087E:   C000   CPY #00           66CF:   EA     NOP
2890:   EA     NOP             0880:   F004   BEQ 0886          66D0:   4CDA66 JMP 66DA
2891:   EA     NOP             0882:   D004   BNE 0888          66D3:   A63C   LDX 3C
2892:   EA     NOP             0884:   A406   LDY 06            66D5:   F0F9   BEQ 66D0
2893:   EA     NOP             0886:   4940   EOR #40           66D7:   EA     NOP
2894:   C6D3   DEC D3          0888:   244E   BIT 4E            66D8:   4980   EOR #80
2896:   D007   BNE 289F        088A:   5007   BVC 0893          66DA:   2C30C0 BIT C030
2898:   C6D2   DEC D2          088C:   7000   BVS 088E          66DD:   88     DEY
289A:   F009   BEQ 28A5        088E:   1009   BPL 0899          66DE:   F008   BEQ 66E8
289C:   4C4028 JMP 2840        0890:   EA     NOP               66E0:   C43F   CPY 3F
289F:   EA     NOP             0891:   3009   BMI 089C          66E2:   F008   BEQ 66EC
28A0:   EA     NOP             0893:   EA     NOP               66E4:   EA     NOP
28A1:   EA     NOP             0894:   3003   BMI 0899          66E5:   4CEF66 JMP 66EF
28A2:   4C4028 JMP 2840        0896:   EA     NOP               66E8:   A43D   LDY 3D
28A5:   A51E   LDA 1E          0897:   1003   BPL 089C          66EA:   F0F9   BEQ 66E5
28A7:   18     CLC             0899:   CD30C0 CMP C030          66EC:   EA     NOP
28A8:   6903   ADC #03         089C:   C64F   DEC 4F            66ED:   4940   EOR #40
28AA:   851E   STA 1E          089E:   D011   BNE 08B1          66EF:   2C30C0 BIT C030
28AC:   9002   BCC 28B0        08A0:   C608   DEC 08            66F2:   8544   STA 44
28AE:   E61F   INC 1F          08A2:   D00D   BNE 08B1          66F4:   C641   DEC 41
28B0:   4C0828 JMP 2808        08A4:   5003   BVC 08A9          66F6:   8D30C0 STA C030
28B3:   C8     INY             08A6:   2C30C0 BIT C030          66F9:   D099   BNE 6694
28B4:   B11E   LDA (1E),Y      08A9:   48     PHA               66FB:   C640   DEC 40
28B6:   08     PHP             08AA:   8A     TXA               66FD:   D095   BNE 6694
28B7:   95D4   STA D4,X        08AB:   48     PHA               66FF:   A51E   LDA 1E
28B9:   C905   CMP #05         08AC:   98     TYA               6701:   18     CLC
28BB:   9002   BCC 28BF        08AD:   48     PHA               6702:   6903   ADC #03
28BD:   4A     LSR             08AE:   4C1808 JMP 0818          6704:   851E   STA 1E
28BE:   4A     LSR             08B1:   CA     DEX               6706:   9002   BCC 670A
28BF:   4A     LSR             08B2:   D002   BNE 08B6          6708:   E61F   INC 1F
28C0:   4A     LSR             08B4:   F006   BEQ 08BC          670A:   4C5A66 JMP 665A
28C1:   95D6   STA D6,X        08B6:   E000   CPX #00           670D:   60     RTS
28C3:   28     PLP             08B8:   F004   BEQ 08BE          670E:   88     DEY
28C4:   F004   BEQ 28CA        08BA:   D004   BNE 08C0          670F:   F008   BEQ 6719
28C6:   A930   LDA #30         08BC:   A607   LDX 07            6711:   C43F   CPY 3F
28C8:   A2A0   LDX #A0         08BE:   4980   EOR #80           6713:   F008   BEQ 671D
28CA:   60     RTS             08C0:   70A3   BVS 0865          6715:   EA     NOP
                               08C2:   EA     NOP               6716:   4C2067 JMP 6720
                               08C3:   50A3   BVC 0868          6719:   A43D   LDY 3D
                                                                671B:   F0F9   BEQ 6716
                                                                671D:   EA     NOP
                                                                671E:   4940   EOR #40
                                                                6720:   8544   STA 44
                                                                6722:   4C2667 JMP 6726
                                                                6725:   60     RTS
                                                                6726:   C641   DEC 41
                                                                6728:   4CF966 JMP 66F9
